; Function Attrs: mustprogress uwtable
define internal fastcc void @_ZN12_GLOBAL__N_13idyENSt7__cxx1112basic_stringIcSt11char_traitsIcESaIcEEES5_S5_(ptr dead_on_unwind noalias writable align 8 %0, ptr noundef nonnull %1, ptr noundef %2, ptr noundef %3) unnamed_addr #4 personality ptr @__gxx_personality_v0 {
  %5 = alloca %"class.std::__cxx11::basic_string", align 8
  %6 = alloca %"class.std::__cxx11::basic_string", align 8
  %7 = alloca %"class.std::__cxx11::basic_string", align 8
  %8 = alloca %"class.std::__cxx11::basic_string", align 8
  %9 = alloca %"class.std::__cxx11::basic_string", align 8
  %10 = alloca %"class.std::__cxx11::basic_string", align 8
  %11 = alloca %"class.std::__cxx11::basic_string", align 8
  %12 = alloca %"class.std::__cxx11::basic_string", align 8
  %13 = alloca %"class.std::__cxx11::basic_string", align 8
  call void @_ZNSt7__cxx1112basic_stringIcSt11char_traitsIcESaIcEEC1ERKS4_(ptr noundef nonnull align 8 dereferenceable(32) %6, ptr noundef nonnull align 8 dereferenceable(32) %1)
  %14 = invoke noundef nonnull align 1 dereferenceable(1) ptr @_ZNSt7__cxx1112basic_stringIcSt11char_traitsIcESaIcEEixEm(ptr noundef nonnull align 8 dereferenceable(32) %6, i64 noundef 0)
          to label %.noexc unwind label %31

.noexc:                                           ; preds = %4
  %15 = load i8, ptr %14, align 1, !noalias !146
  %16 = icmp eq i8 %15, 92
  br i1 %16, label %17, label %18

17:                                               ; preds = %.noexc
  invoke void @_ZNKSt7__cxx1112basic_stringIcSt11char_traitsIcESaIcEE6substrEmm(ptr dead_on_unwind nonnull writable sret(%"class.std::__cxx11::basic_string") align 8 %5, ptr noundef nonnull align 8 dereferenceable(32) %6, i64 noundef 1, i64 noundef -1)
          to label %_ZN12_GLOBAL__N_13idxENSt7__cxx1112basic_stringIcSt11char_traitsIcESaIcEEE.exit unwind label %31

18:                                               ; preds = %.noexc
  call void @_ZNSt7__cxx1112basic_stringIcSt11char_traitsIcESaIcEEC1EOS4_(ptr noundef nonnull align 8 dereferenceable(32) %5, ptr noundef nonnull align 8 dereferenceable(32) %6) #18
  br label %_ZN12_GLOBAL__N_13idxENSt7__cxx1112basic_stringIcSt11char_traitsIcESaIcEEE.exit

_ZN12_GLOBAL__N_13idxENSt7__cxx1112basic_stringIcSt11char_traitsIcESaIcEEE.exit: ; preds = %18, %17
  %19 = call noundef nonnull align 8 dereferenceable(32) ptr @_ZNSt7__cxx1112basic_stringIcSt11char_traitsIcESaIcEEaSEOS4_(ptr noundef nonnull align 8 dereferenceable(32) %1, ptr noundef nonnull align 8 dereferenceable(32) %5) #18
  call void @_ZNSt7__cxx1112basic_stringIcSt11char_traitsIcESaIcEED1Ev(ptr noundef nonnull align 8 dereferenceable(32) %5) #18
  call void @_ZNSt7__cxx1112basic_stringIcSt11char_traitsIcESaIcEED1Ev(ptr noundef nonnull align 8 dereferenceable(32) %6) #18
  %20 = call noundef zeroext i1 @_ZNKSt7__cxx1112basic_stringIcSt11char_traitsIcESaIcEE5emptyEv(ptr noundef nonnull align 8 dereferenceable(32) %2) #18
  br i1 %20, label %40, label %21

21:                                               ; preds = %_ZN12_GLOBAL__N_13idxENSt7__cxx1112basic_stringIcSt11char_traitsIcESaIcEEE.exit
  call void @_ZNSt7__cxx1112basic_stringIcSt11char_traitsIcESaIcEEC1ERKS4_(ptr noundef nonnull align 8 dereferenceable(32) %9, ptr noundef nonnull align 8 dereferenceable(32) %2)
  %22 = invoke noundef nonnull align 1 dereferenceable(1) ptr @_ZNSt7__cxx1112basic_stringIcSt11char_traitsIcESaIcEEixEm(ptr noundef nonnull align 8 dereferenceable(32) %9, i64 noundef 0)
          to label %.noexc14 unwind label %33

.noexc14:                                         ; preds = %21
  %23 = load i8, ptr %22, align 1, !noalias !149
  %24 = icmp eq i8 %23, 92
  br i1 %24, label %25, label %26

25:                                               ; preds = %.noexc14
  invoke void @_ZNKSt7__cxx1112basic_stringIcSt11char_traitsIcESaIcEE6substrEmm(ptr dead_on_unwind nonnull writable sret(%"class.std::__cxx11::basic_string") align 8 %8, ptr noundef nonnull align 8 dereferenceable(32) %9, i64 noundef 1, i64 noundef -1)
          to label %_ZN12_GLOBAL__N_13idxENSt7__cxx1112basic_stringIcSt11char_traitsIcESaIcEEE.exit16 unwind label %33

26:                                               ; preds = %.noexc14
  call void @_ZNSt7__cxx1112basic_stringIcSt11char_traitsIcESaIcEEC1EOS4_(ptr noundef nonnull align 8 dereferenceable(32) %8, ptr noundef nonnull align 8 dereferenceable(32) %9) #18
  br label %_ZN12_GLOBAL__N_13idxENSt7__cxx1112basic_stringIcSt11char_traitsIcESaIcEEE.exit16

_ZN12_GLOBAL__N_13idxENSt7__cxx1112basic_stringIcSt11char_traitsIcESaIcEEE.exit16: ; preds = %26, %25
  %27 = invoke noundef nonnull align 8 dereferenceable(32) ptr @_ZNSt7__cxx1112basic_stringIcSt11char_traitsIcESaIcEE6insertEmPKc(ptr noundef nonnull align 8 dereferenceable(32) %8, i64 noundef 0, ptr noundef nonnull @.str.110)
          to label %28 unwind label %35

28:                                               ; preds = %_ZN12_GLOBAL__N_13idxENSt7__cxx1112basic_stringIcSt11char_traitsIcESaIcEEE.exit16
  call void @_ZNSt7__cxx1112basic_stringIcSt11char_traitsIcESaIcEEC1EOS4_(ptr noundef nonnull align 8 dereferenceable(32) %7, ptr noundef nonnull align 8 dereferenceable(32) %27) #18
  %29 = invoke noundef nonnull align 8 dereferenceable(32) ptr @_ZNSt7__cxx1112basic_stringIcSt11char_traitsIcESaIcEEpLERKS4_(ptr noundef nonnull align 8 dereferenceable(32) %1, ptr noundef nonnull align 8 dereferenceable(32) %7)
          to label %30 unwind label %37

30:                                               ; preds = %28
  call void @_ZNSt7__cxx1112basic_stringIcSt11char_traitsIcESaIcEED1Ev(ptr noundef nonnull align 8 dereferenceable(32) %7) #18
  call void @_ZNSt7__cxx1112basic_stringIcSt11char_traitsIcESaIcEED1Ev(ptr noundef nonnull align 8 dereferenceable(32) %8) #18
  call void @_ZNSt7__cxx1112basic_stringIcSt11char_traitsIcESaIcEED1Ev(ptr noundef nonnull align 8 dereferenceable(32) %9) #18
  br label %40

31:                                               ; preds = %17, %4
  %32 = landingpad { ptr, i32 }
          cleanup
  br label %63

33:                                               ; preds = %25, %21
  %34 = landingpad { ptr, i32 }
          cleanup
  br label %63

35:                                               ; preds = %_ZN12_GLOBAL__N_13idxENSt7__cxx1112basic_stringIcSt11char_traitsIcESaIcEEE.exit16
  %36 = landingpad { ptr, i32 }
          cleanup
  br label %39

37:                                               ; preds = %28
  %38 = landingpad { ptr, i32 }
          cleanup
  call void @_ZNSt7__cxx1112basic_stringIcSt11char_traitsIcESaIcEED1Ev(ptr noundef nonnull align 8 dereferenceable(32) %7) #18
  br label %39

39:                                               ; preds = %37, %35
  %.pn = phi { ptr, i32 } [ %38, %37 ], [ %36, %35 ]
  call void @_ZNSt7__cxx1112basic_stringIcSt11char_traitsIcESaIcEED1Ev(ptr noundef nonnull align 8 dereferenceable(32) %8) #18
  br label %63

40:                                               ; preds = %30, %_ZN12_GLOBAL__N_13idxENSt7__cxx1112basic_stringIcSt11char_traitsIcESaIcEEE.exit
  %41 = call noundef zeroext i1 @_ZNKSt7__cxx1112basic_stringIcSt11char_traitsIcESaIcEE5emptyEv(ptr noundef nonnull align 8 dereferenceable(32) %3) #18
  br i1 %41, label %59, label %42

42:                                               ; preds = %40
  call void @_ZNSt7__cxx1112basic_stringIcSt11char_traitsIcESaIcEEC1ERKS4_(ptr noundef nonnull align 8 dereferenceable(32) %12, ptr noundef nonnull align 8 dereferenceable(32) %3)
  %43 = invoke noundef nonnull align 1 dereferenceable(1) ptr @_ZNSt7__cxx1112basic_stringIcSt11char_traitsIcESaIcEEixEm(ptr noundef nonnull align 8 dereferenceable(32) %12, i64 noundef 0)
          to label %.noexc18 unwind label %52

.noexc18:                                         ; preds = %42
  %44 = load i8, ptr %43, align 1, !noalias !152
  %45 = icmp eq i8 %44, 92
  br i1 %45, label %46, label %47

46:                                               ; preds = %.noexc18
  invoke void @_ZNKSt7__cxx1112basic_stringIcSt11char_traitsIcESaIcEE6substrEmm(ptr dead_on_unwind nonnull writable sret(%"class.std::__cxx11::basic_string") align 8 %11, ptr noundef nonnull align 8 dereferenceable(32) %12, i64 noundef 1, i64 noundef -1)
          to label %_ZN12_GLOBAL__N_13idxENSt7__cxx1112basic_stringIcSt11char_traitsIcESaIcEEE.exit20 unwind label %52

47:                                               ; preds = %.noexc18
  call void @_ZNSt7__cxx1112basic_stringIcSt11char_traitsIcESaIcEEC1EOS4_(ptr noundef nonnull align 8 dereferenceable(32) %11, ptr noundef nonnull align 8 dereferenceable(32) %12) #18
  br label %_ZN12_GLOBAL__N_13idxENSt7__cxx1112basic_stringIcSt11char_traitsIcESaIcEEE.exit20

_ZN12_GLOBAL__N_13idxENSt7__cxx1112basic_stringIcSt11char_traitsIcESaIcEEE.exit20: ; preds = %47, %46
  %48 = invoke noundef nonnull align 8 dereferenceable(32) ptr @_ZNSt7__cxx1112basic_stringIcSt11char_traitsIcESaIcEE6insertEmPKc(ptr noundef nonnull align 8 dereferenceable(32) %11, i64 noundef 0, ptr noundef nonnull @.str.110)
          to label %49 unwind label %54

49:                                               ; preds = %_ZN12_GLOBAL__N_13idxENSt7__cxx1112basic_stringIcSt11char_traitsIcESaIcEEE.exit20
  call void @_ZNSt7__cxx1112basic_stringIcSt11char_traitsIcESaIcEEC1EOS4_(ptr noundef nonnull align 8 dereferenceable(32) %10, ptr noundef nonnull align 8 dereferenceable(32) %48) #18
  %50 = invoke noundef nonnull align 8 dereferenceable(32) ptr @_ZNSt7__cxx1112basic_stringIcSt11char_traitsIcESaIcEEpLERKS4_(ptr noundef nonnull align 8 dereferenceable(32) %1, ptr noundef nonnull align 8 dereferenceable(32) %10)
          to label %51 unwind label %56

51:                                               ; preds = %49
  call void @_ZNSt7__cxx1112basic_stringIcSt11char_traitsIcESaIcEED1Ev(ptr noundef nonnull align 8 dereferenceable(32) %10) #18
  call void @_ZNSt7__cxx1112basic_stringIcSt11char_traitsIcESaIcEED1Ev(ptr noundef nonnull align 8 dereferenceable(32) %11) #18
  call void @_ZNSt7__cxx1112basic_stringIcSt11char_traitsIcESaIcEED1Ev(ptr noundef nonnull align 8 dereferenceable(32) %12) #18
  br label %59

52:                                               ; preds = %46, %42
  %53 = landingpad { ptr, i32 }
          cleanup
  br label %63

54:                                               ; preds = %_ZN12_GLOBAL__N_13idxENSt7__cxx1112basic_stringIcSt11char_traitsIcESaIcEEE.exit20
  %55 = landingpad { ptr, i32 }
          cleanup
  br label %58

56:                                               ; preds = %49
  %57 = landingpad { ptr, i32 }
          cleanup
  call void @_ZNSt7__cxx1112basic_stringIcSt11char_traitsIcESaIcEED1Ev(ptr noundef nonnull align 8 dereferenceable(32) %10) #18
  br label %58

58:                                               ; preds = %56, %54
  %.pn8 = phi { ptr, i32 } [ %57, %56 ], [ %55, %54 ]
  call void @_ZNSt7__cxx1112basic_stringIcSt11char_traitsIcESaIcEED1Ev(ptr noundef nonnull align 8 dereferenceable(32) %11) #18
  br label %63

59:                                               ; preds = %51, %40
  call void @_ZNSt7__cxx1112basic_stringIcSt11char_traitsIcESaIcEEC1ERKS4_(ptr noundef nonnull align 8 dereferenceable(32) %13, ptr noundef nonnull align 8 dereferenceable(32) %1)
  invoke fastcc void @_ZN12_GLOBAL__N_12idENSt7__cxx1112basic_stringIcSt11char_traitsIcESaIcEEE(ptr dead_on_unwind noalias writable align 8 %0, ptr noundef nonnull %13)
          to label %60 unwind label %61

60:                                               ; preds = %59
  call void @_ZNSt7__cxx1112basic_stringIcSt11char_traitsIcESaIcEED1Ev(ptr noundef nonnull align 8 dereferenceable(32) %13) #18
  ret void

61:                                               ; preds = %59
  %62 = landingpad { ptr, i32 }
          cleanup
  br label %63

63:                                               ; preds = %52, %58, %33, %39, %61, %31
  %.sink = phi ptr [ %13, %61 ], [ %6, %31 ], [ %9, %39 ], [ %9, %33 ], [ %12, %58 ], [ %12, %52 ]
  %.pn11 = phi { ptr, i32 } [ %62, %61 ], [ %32, %31 ], [ %.pn, %39 ], [ %34, %33 ], [ %.pn8, %58 ], [ %53, %52 ]
  call void @_ZNSt7__cxx1112basic_stringIcSt11char_traitsIcESaIcEED1Ev(ptr noundef nonnull align 8 dereferenceable(32) %.sink) #18
  resume { ptr, i32 } %.pn11
}